target datalayout = "e-m:e-p270:32:32-p271:32:32-p272:64:64-i64:64-i128:128-f80:128-n8:16:32:64-S128"
target triple = "x86_64-pc-linux-gnu"

%struct.mq = type { ptr, i32, i32, ptr, ptr, i64, ptr, i64, ptr, i64, ptr, i8, ptr, ptr, [10 x %struct.mq_item] }
%struct.mq_item = type { i32, i64, i64 }
%struct.LimExNFA32 = type { [256 x i8], i32, i32, i32, i32, i32, i32, i32, i32, i32, i32, i32, i32, i32, i32, i32, i32, i32, i32, i32, i32, i32, i32, i32, i32, i32, i32, i32, i32, i32, i32, i32, [8 x i32], i32, [8 x i8], %struct.m512, %struct.m512, %struct.m512 }
%struct.m512 = type { <4 x i64>, <4 x i64> }
%struct.NFARepeatInfo = type { i32, i32, i32, i32, i32, i32 }
%union.RepeatControl = type { %struct.RepeatRingControl }
%struct.RepeatRingControl = type { i64, i16, i16 }
%struct.RepeatInfo = type { i8, i32, i32, i32, i32, i32, i32, [2 x i32], i32, i32, i32, i32, i32 }
%struct.RepeatOffsetControl = type { i64 }

; Function Attrs: alwaysinline nounwind uwtable
define internal i32 @repeatHasMatchLast(ptr noundef %0, ptr noundef %1, i64 noundef %2) #2 {
  %4 = alloca i32, align 4
  %5 = alloca ptr, align 8
  %6 = alloca ptr, align 8
  %7 = alloca i64, align 8
  store ptr %0, ptr %5, align 8
  store ptr %1, ptr %6, align 8
  store i64 %2, ptr %7, align 8
  %8 = load i64, ptr %7, align 8
  %9 = load ptr, ptr %6, align 8
  %10 = getelementptr inbounds nuw %struct.RepeatOffsetControl, ptr %9, i32 0, i32 0
  %11 = load i64, ptr %10, align 8
  %12 = load ptr, ptr %5, align 8
  %13 = getelementptr inbounds nuw %struct.RepeatInfo, ptr %12, i32 0, i32 1
  %14 = load i32, ptr %13, align 4
  %15 = zext i32 %14 to i64
  %16 = add i64 %11, %15
  %17 = icmp ult i64 %8, %16
  br i1 %17, label %18, label %19

18:                                               ; preds = %3
  store i32 0, ptr %4, align 4
  br label %32

19:                                               ; preds = %3
  %20 = load i64, ptr %7, align 8
  %21 = load ptr, ptr %6, align 8
  %22 = getelementptr inbounds nuw %struct.RepeatOffsetControl, ptr %21, i32 0, i32 0
  %23 = load i64, ptr %22, align 8
  %24 = load ptr, ptr %5, align 8
  %25 = getelementptr inbounds nuw %struct.RepeatInfo, ptr %24, i32 0, i32 2
  %26 = load i32, ptr %25, align 4
  %27 = zext i32 %26 to i64
  %28 = add i64 %23, %27
  %29 = icmp ule i64 %20, %28
  br i1 %29, label %30, label %31

30:                                               ; preds = %19
  store i32 1, ptr %4, align 4
  br label %32

31:                                               ; preds = %19
  store i32 2, ptr %4, align 4
  br label %32

32:                                               ; preds = %31, %30, %18
  %33 = load i32, ptr %4, align 4
  ret i32 %33
}

; Function Attrs: alwaysinline nounwind uwtable
define internal i32 @repeatHasMatchFirst(ptr noundef %0, ptr noundef %1, i64 noundef %2) #2 {
  %4 = alloca i32, align 4
  %5 = alloca ptr, align 8
  %6 = alloca ptr, align 8
  %7 = alloca i64, align 8
  store ptr %0, ptr %5, align 8
  store ptr %1, ptr %6, align 8
  store i64 %2, ptr %7, align 8
  %8 = load i64, ptr %7, align 8
  %9 = load ptr, ptr %6, align 8
  %10 = getelementptr inbounds nuw %struct.RepeatOffsetControl, ptr %9, i32 0, i32 0
  %11 = load i64, ptr %10, align 8
  %12 = load ptr, ptr %5, align 8
  %13 = getelementptr inbounds nuw %struct.RepeatInfo, ptr %12, i32 0, i32 1
  %14 = load i32, ptr %13, align 4
  %15 = zext i32 %14 to i64
  %16 = add i64 %11, %15
  %17 = icmp ult i64 %8, %16
  br i1 %17, label %18, label %19

18:                                               ; preds = %3
  store i32 0, ptr %4, align 4
  br label %20

19:                                               ; preds = %3
  store i32 1, ptr %4, align 4
  br label %20

20:                                               ; preds = %19, %18
  %21 = load i32, ptr %4, align 4
  ret i32 %21
}

; Function Attrs: alwaysinline nounwind uwtable
define internal void @clearbit_u32(ptr noundef %0, i32 noundef %1) #2 {
  %3 = alloca ptr, align 8
  %4 = alloca i32, align 4
  store ptr %0, ptr %3, align 8
  store i32 %1, ptr %4, align 4
  %5 = load i32, ptr %4, align 4
  %6 = shl i32 1, %5
  %7 = xor i32 %6, -1
  %8 = load ptr, ptr %3, align 8
  %9 = load i32, ptr %8, align 4
  %10 = and i32 %9, %7
  store i32 %10, ptr %8, align 4
  ret void
}

; Function Attrs: alwaysinline nounwind uwtable
define internal i32 @repeatHasMatch(ptr noundef %0, ptr noundef %1, ptr noundef %2, i64 noundef %3) #2 {
  %5 = alloca i32, align 4
  %6 = alloca ptr, align 8
  %7 = alloca ptr, align 8
  %8 = alloca ptr, align 8
  %9 = alloca i64, align 8
  store ptr %0, ptr %6, align 8
  store ptr %1, ptr %7, align 8
  store ptr %2, ptr %8, align 8
  store i64 %3, ptr %9, align 8
  %10 = load ptr, ptr %6, align 8
  %11 = getelementptr inbounds nuw %struct.RepeatInfo, ptr %10, i32 0, i32 0
  %12 = load i8, ptr %11, align 4
  %13 = zext i8 %12 to i32
  switch i32 %13, label %53 [
    i32 0, label %14
    i32 1, label %20
    i32 2, label %25
    i32 3, label %30
    i32 4, label %36
    i32 5, label %41
    i32 6, label %47
    i32 7, label %52
  ]

14:                                               ; preds = %4
  %15 = load ptr, ptr %6, align 8
  %16 = load ptr, ptr %7, align 8
  %17 = load ptr, ptr %8, align 8
  %18 = load i64, ptr %9, align 8
  %19 = call i32 @repeatHasMatchRing(ptr noundef %15, ptr noundef %16, ptr noundef %17, i64 noundef %18)
  store i32 %19, ptr %5, align 4
  br label %54

20:                                               ; preds = %4
  %21 = load ptr, ptr %6, align 8
  %22 = load ptr, ptr %7, align 8
  %23 = load i64, ptr %9, align 8
  %24 = call i32 @repeatHasMatchFirst(ptr noundef %21, ptr noundef %22, i64 noundef %23)
  store i32 %24, ptr %5, align 4
  br label %54

25:                                               ; preds = %4
  %26 = load ptr, ptr %6, align 8
  %27 = load ptr, ptr %7, align 8
  %28 = load i64, ptr %9, align 8
  %29 = call i32 @repeatHasMatchLast(ptr noundef %26, ptr noundef %27, i64 noundef %28)
  store i32 %29, ptr %5, align 4
  br label %54

30:                                               ; preds = %4
  %31 = load ptr, ptr %6, align 8
  %32 = load ptr, ptr %7, align 8
  %33 = load ptr, ptr %8, align 8
  %34 = load i64, ptr %9, align 8
  %35 = call i32 @repeatHasMatchRange(ptr noundef %31, ptr noundef %32, ptr noundef %33, i64 noundef %34)
  store i32 %35, ptr %5, align 4
  br label %54

36:                                               ; preds = %4
  %37 = load ptr, ptr %6, align 8
  %38 = load ptr, ptr %7, align 8
  %39 = load i64, ptr %9, align 8
  %40 = call i32 @repeatHasMatchBitmap(ptr noundef %37, ptr noundef %38, i64 noundef %39)
  store i32 %40, ptr %5, align 4
  br label %54

41:                                               ; preds = %4
  %42 = load ptr, ptr %6, align 8
  %43 = load ptr, ptr %7, align 8
  %44 = load ptr, ptr %8, align 8
  %45 = load i64, ptr %9, align 8
  %46 = call i32 @repeatHasMatchSparseOptimalP(ptr noundef %42, ptr noundef %43, ptr noundef %44, i64 noundef %45)
  store i32 %46, ptr %5, align 4
  br label %54

47:                                               ; preds = %4
  %48 = load ptr, ptr %6, align 8
  %49 = load ptr, ptr %7, align 8
  %50 = load i64, ptr %9, align 8
  %51 = call i32 @repeatHasMatchTrailer(ptr noundef %48, ptr noundef %49, i64 noundef %50)
  store i32 %51, ptr %5, align 4
  br label %54

52:                                               ; preds = %4
  store i32 1, ptr %5, align 4
  br label %54

53:                                               ; preds = %4
  store i32 0, ptr %5, align 4
  br label %54

54:                                               ; preds = %53, %52, %47, %41, %36, %30, %25, %20, %14
  %55 = load i32, ptr %5, align 4
  ret i32 %55
}

; Function Attrs: alwaysinline nounwind uwtable
define internal ptr @getRepeatInfo(ptr noundef %0) #2 {
  %2 = alloca ptr, align 8
  %3 = alloca ptr, align 8
  store ptr %0, ptr %2, align 8
  call void @llvm.lifetime.start.p0(i64 8, ptr %3) #9
  %4 = load ptr, ptr %2, align 8
  %5 = getelementptr inbounds nuw i8, ptr %4, i64 24
  store ptr %5, ptr %3, align 8
  %6 = load ptr, ptr %3, align 8
  call void @llvm.lifetime.end.p0(i64 8, ptr %3) #9
  ret ptr %6
}

; Function Attrs: alwaysinline nounwind uwtable
define internal signext i8 @testbit_u32(i32 noundef %0, i32 noundef %1) #2 {
  %3 = alloca i32, align 4
  %4 = alloca i32, align 4
  store i32 %0, ptr %3, align 4
  store i32 %1, ptr %4, align 4
  %5 = load i32, ptr %3, align 4
  %6 = load i32, ptr %4, align 4
  %7 = shl i32 1, %6
  %8 = and i32 %5, %7
  %9 = icmp ne i32 %8, 0
  %10 = xor i1 %9, true
  %11 = xor i1 %10, true
  %12 = zext i1 %11 to i32
  %13 = trunc i32 %12 to i8
  ret i8 %13
}

; Function Attrs: alwaysinline nounwind uwtable
define internal ptr @getNfaRepeatInfo32(ptr noundef %0, i32 noundef %1) #2 {
  %3 = alloca ptr, align 8
  %4 = alloca i32, align 4
  %5 = alloca ptr, align 8
  %6 = alloca ptr, align 8
  %7 = alloca ptr, align 8
  store ptr %0, ptr %3, align 8
  store i32 %1, ptr %4, align 4
  call void @llvm.lifetime.start.p0(i64 8, ptr %5) #9
  %8 = load ptr, ptr %3, align 8
  store ptr %8, ptr %5, align 8
  call void @llvm.lifetime.start.p0(i64 8, ptr %6) #9
  %9 = load ptr, ptr %5, align 8
  %10 = load ptr, ptr %3, align 8
  %11 = getelementptr inbounds nuw %struct.LimExNFA32, ptr %10, i32 0, i32 13
  %12 = load i32, ptr %11, align 16
  %13 = zext i32 %12 to i64
  %14 = getelementptr inbounds nuw i8, ptr %9, i64 %13
  store ptr %14, ptr %6, align 8
  call void @llvm.lifetime.start.p0(i64 8, ptr %7) #9
  %15 = load ptr, ptr %5, align 8
  %16 = load ptr, ptr %6, align 8
  %17 = load i32, ptr %4, align 4
  %18 = zext i32 %17 to i64
  %19 = getelementptr inbounds nuw i32, ptr %16, i64 %18
  %20 = load i32, ptr %19, align 4
  %21 = zext i32 %20 to i64
  %22 = getelementptr inbounds nuw i8, ptr %15, i64 %21
  store ptr %22, ptr %7, align 8
  %23 = load ptr, ptr %7, align 8
  call void @llvm.lifetime.end.p0(i64 8, ptr %7) #9
  call void @llvm.lifetime.end.p0(i64 8, ptr %6) #9
  call void @llvm.lifetime.end.p0(i64 8, ptr %5) #9
  ret ptr %23
}

; Function Attrs: alwaysinline nounwind uwtable
define internal void @lazyTug32(ptr noundef %0, ptr noundef %1, ptr noundef %2, i64 noundef %3, ptr noundef %4) #2 {
  %6 = alloca ptr, align 8
  %7 = alloca ptr, align 8
  %8 = alloca ptr, align 8
  %9 = alloca i64, align 8
  %10 = alloca ptr, align 8
  %11 = alloca i32, align 4
  %12 = alloca i32, align 4
  %13 = alloca ptr, align 8
  %14 = alloca i32, align 4
  %15 = alloca ptr, align 8
  %16 = alloca ptr, align 8
  %17 = alloca ptr, align 8
  store ptr %0, ptr %6, align 8
  store ptr %1, ptr %7, align 8
  store ptr %2, ptr %8, align 8
  store i64 %3, ptr %9, align 8
  store ptr %4, ptr %10, align 8
  %18 = load ptr, ptr %6, align 8
  %19 = getelementptr inbounds nuw %struct.LimExNFA32, ptr %18, i32 0, i32 12
  %20 = load i32, ptr %19, align 4
  %21 = icmp ne i32 %20, 0
  br i1 %21, label %23, label %22

22:                                               ; preds = %5
  br label %82

23:                                               ; preds = %5
  call void @llvm.lifetime.start.p0(i64 4, ptr %11) #9
  store i32 0, ptr %11, align 4
  br label %24

24:                                               ; preds = %79, %23
  %25 = load i32, ptr %11, align 4
  %26 = load ptr, ptr %6, align 8
  %27 = getelementptr inbounds nuw %struct.LimExNFA32, ptr %26, i32 0, i32 12
  %28 = load i32, ptr %27, align 4
  %29 = icmp ult i32 %25, %28
  br i1 %29, label %31, label %30

30:                                               ; preds = %24
  store i32 2, ptr %12, align 4
  call void @llvm.lifetime.end.p0(i64 4, ptr %11) #9
  br label %82

31:                                               ; preds = %24
  call void @llvm.lifetime.start.p0(i64 8, ptr %13) #9
  %32 = load ptr, ptr %6, align 8
  %33 = load i32, ptr %11, align 4
  %34 = call ptr @getNfaRepeatInfo32(ptr noundef %32, i32 noundef %33)
  store ptr %34, ptr %13, align 8
  call void @llvm.lifetime.start.p0(i64 4, ptr %14) #9
  %35 = load ptr, ptr %13, align 8
  %36 = getelementptr inbounds nuw %struct.NFARepeatInfo, ptr %35, i32 0, i32 0
  %37 = load i32, ptr %36, align 4
  store i32 %37, ptr %14, align 4
  %38 = load ptr, ptr %10, align 8
  %39 = load i32, ptr %38, align 4
  %40 = load i32, ptr %14, align 4
  %41 = call signext i8 @testbit_u32(i32 noundef %39, i32 noundef %40)
  %42 = icmp ne i8 %41, 0
  br i1 %42, label %44, label %43

43:                                               ; preds = %31
  store i32 4, ptr %12, align 4
  br label %76

44:                                               ; preds = %31
  br label %45

45:                                               ; preds = %44
  br label %46

46:                                               ; preds = %45
  br label %47

47:                                               ; preds = %46
  br label %48

48:                                               ; preds = %47
  br label %49

49:                                               ; preds = %48
  br label %50

50:                                               ; preds = %49
  call void @llvm.lifetime.start.p0(i64 8, ptr %15) #9
  %51 = load ptr, ptr %7, align 8
  %52 = load i32, ptr %11, align 4
  %53 = zext i32 %52 to i64
  %54 = getelementptr inbounds nuw %union.RepeatControl, ptr %51, i64 %53
  store ptr %54, ptr %15, align 8
  call void @llvm.lifetime.start.p0(i64 8, ptr %16) #9
  %55 = load ptr, ptr %8, align 8
  %56 = load ptr, ptr %13, align 8
  %57 = getelementptr inbounds nuw %struct.NFARepeatInfo, ptr %56, i32 0, i32 3
  %58 = load i32, ptr %57, align 4
  %59 = zext i32 %58 to i64
  %60 = getelementptr inbounds nuw i8, ptr %55, i64 %59
  store ptr %60, ptr %16, align 8
  call void @llvm.lifetime.start.p0(i64 8, ptr %17) #9
  %61 = load ptr, ptr %13, align 8
  %62 = call ptr @getRepeatInfo(ptr noundef %61)
  store ptr %62, ptr %17, align 8
  %63 = load ptr, ptr %17, align 8
  %64 = load ptr, ptr %15, align 8
  %65 = load ptr, ptr %16, align 8
  %66 = load i64, ptr %9, align 8
  %67 = call i32 @repeatHasMatch(ptr noundef %63, ptr noundef %64, ptr noundef %65, i64 noundef %66)
  %68 = icmp ne i32 %67, 1
  br i1 %68, label %69, label %75

69:                                               ; preds = %50
  br label %70

70:                                               ; preds = %69
  br label %71

71:                                               ; preds = %70
  br label %72

72:                                               ; preds = %71
  %73 = load ptr, ptr %10, align 8
  %74 = load i32, ptr %14, align 4
  call void @clearbit_u32(ptr noundef %73, i32 noundef %74)
  br label %75

75:                                               ; preds = %72, %50
  call void @llvm.lifetime.end.p0(i64 8, ptr %17) #9
  call void @llvm.lifetime.end.p0(i64 8, ptr %16) #9
  call void @llvm.lifetime.end.p0(i64 8, ptr %15) #9
  store i32 0, ptr %12, align 4
  br label %76

76:                                               ; preds = %75, %43
  call void @llvm.lifetime.end.p0(i64 4, ptr %14) #9
  call void @llvm.lifetime.end.p0(i64 8, ptr %13) #9
  %77 = load i32, ptr %12, align 4
  switch i32 %77, label %83 [
    i32 0, label %78
    i32 4, label %79
  ]

78:                                               ; preds = %76
  br label %79

79:                                               ; preds = %78, %76
  %80 = load i32, ptr %11, align 4
  %81 = add i32 %80, 1
  store i32 %81, ptr %11, align 4
  br label %24

82:                                               ; preds = %22, %30
  ret void

83:                                               ; preds = %76
  unreachable
}

; Function Attrs: alwaysinline nounwind uwtable
define internal ptr @getRepeatControlBase(ptr noundef %0, i64 noundef %1) #2 {
  %3 = alloca ptr, align 8
  %4 = alloca i64, align 8
  %5 = alloca ptr, align 8
  store ptr %0, ptr %3, align 8
  store i64 %1, ptr %4, align 8
  call void @llvm.lifetime.start.p0(i64 8, ptr %5) #9
  %6 = load ptr, ptr %3, align 8
  %7 = load i64, ptr %4, align 8
  %8 = add i64 %7, 7
  %9 = and i64 %8, -8
  %10 = getelementptr inbounds nuw i8, ptr %6, i64 %9
  store ptr %10, ptr %5, align 8
  %11 = load ptr, ptr %5, align 8
  call void @llvm.lifetime.end.p0(i64 8, ptr %5) #9
  ret ptr %11
}

; Function Attrs: nounwind uwtable
define hidden i32 @nfaExecLimEx32_zombie_status(ptr noundef %0, ptr noundef %1, i64 noundef %2) #0 {
  %4 = alloca i32, align 4
  %5 = alloca ptr, align 8
  %6 = alloca ptr, align 8
  %7 = alloca i64, align 8
  %8 = alloca ptr, align 8
  %9 = alloca i32, align 4
  %10 = alloca i32, align 4
  %11 = alloca i64, align 8
  %12 = alloca ptr, align 8
  %13 = alloca ptr, align 8
  %14 = alloca i32, align 4
  store ptr %0, ptr %5, align 8
  store ptr %1, ptr %6, align 8
  store i64 %2, ptr %7, align 8
  call void @llvm.lifetime.start.p0(i64 8, ptr %8) #9
  %15 = load ptr, ptr %5, align 8
  %16 = getelementptr inbounds nuw i8, ptr %15, i64 64
  store ptr %16, ptr %8, align 8
  call void @llvm.lifetime.start.p0(i64 4, ptr %9) #9
  %17 = load ptr, ptr %6, align 8
  %18 = getelementptr inbounds nuw %struct.mq, ptr %17, i32 0, i32 3
  %19 = load ptr, ptr %18, align 8
  %20 = load i32, ptr %19, align 4
  store i32 %20, ptr %9, align 4
  call void @llvm.lifetime.start.p0(i64 4, ptr %10) #9
  %21 = load ptr, ptr %8, align 8
  %22 = getelementptr inbounds nuw %struct.LimExNFA32, ptr %21, i32 0, i32 31
  %23 = load i32, ptr %22, align 8
  store i32 %23, ptr %10, align 4
  %24 = load ptr, ptr %8, align 8
  %25 = getelementptr inbounds nuw %struct.LimExNFA32, ptr %24, i32 0, i32 12
  %26 = load i32, ptr %25, align 4
  %27 = icmp ne i32 %26, 0
  br i1 %27, label %28, label %51

28:                                               ; preds = %3
  call void @llvm.lifetime.start.p0(i64 8, ptr %11) #9
  %29 = load ptr, ptr %6, align 8
  %30 = getelementptr inbounds nuw %struct.mq, ptr %29, i32 0, i32 5
  %31 = load i64, ptr %30, align 8
  %32 = load i64, ptr %7, align 8
  %33 = add i64 %31, %32
  %34 = add i64 %33, 1
  store i64 %34, ptr %11, align 8
  call void @llvm.lifetime.start.p0(i64 8, ptr %12) #9
  %35 = load ptr, ptr %6, align 8
  %36 = getelementptr inbounds nuw %struct.mq, ptr %35, i32 0, i32 3
  %37 = load ptr, ptr %36, align 8
  %38 = call ptr @getRepeatControlBase(ptr noundef %37, i64 noundef 4)
  store ptr %38, ptr %12, align 8
  call void @llvm.lifetime.start.p0(i64 8, ptr %13) #9
  %39 = load ptr, ptr %6, align 8
  %40 = getelementptr inbounds nuw %struct.mq, ptr %39, i32 0, i32 4
  %41 = load ptr, ptr %40, align 8
  %42 = load ptr, ptr %8, align 8
  %43 = getelementptr inbounds nuw %struct.LimExNFA32, ptr %42, i32 0, i32 18
  %44 = load i32, ptr %43, align 4
  %45 = zext i32 %44 to i64
  %46 = getelementptr inbounds nuw i8, ptr %41, i64 %45
  store ptr %46, ptr %13, align 8
  %47 = load ptr, ptr %8, align 8
  %48 = load ptr, ptr %12, align 8
  %49 = load ptr, ptr %13, align 8
  %50 = load i64, ptr %11, align 8
  call void @lazyTug32(ptr noundef %47, ptr noundef %48, ptr noundef %49, i64 noundef %50, ptr noundef %9)
  call void @llvm.lifetime.end.p0(i64 8, ptr %13) #9
  call void @llvm.lifetime.end.p0(i64 8, ptr %12) #9
  call void @llvm.lifetime.end.p0(i64 8, ptr %11) #9
  br label %51

51:                                               ; preds = %28, %3
  %52 = load i32, ptr %9, align 4
  %53 = load i32, ptr %10, align 4
  %54 = and i32 %52, %53
  %55 = icmp ne i32 %54, 0
  br i1 %55, label %56, label %57

56:                                               ; preds = %51
  store i32 1, ptr %4, align 4
  store i32 1, ptr %14, align 4
  br label %58

57:                                               ; preds = %51
  store i32 0, ptr %4, align 4
  store i32 1, ptr %14, align 4
  br label %58

58:                                               ; preds = %57, %56
  call void @llvm.lifetime.end.p0(i64 4, ptr %10) #9
  call void @llvm.lifetime.end.p0(i64 4, ptr %9) #9
  call void @llvm.lifetime.end.p0(i64 8, ptr %8) #9
  %59 = load i32, ptr %4, align 4
  ret i32 %59
}