; Function Attrs: nounwind uwtable
define hidden range(i32 0, 2) i32 @nfaExecLimEx32_zombie_status(ptr noundef %0, ptr noundef readonly captures(none) %1, i64 noundef %2) local_unnamed_addr #0 {
  %4 = getelementptr inbounds nuw i8, ptr %1, i64 16
  %5 = load ptr, ptr %4, align 8
  %6 = load i32, ptr %5, align 4
  %7 = getelementptr inbounds nuw i8, ptr %0, i64 440
  %8 = load i32, ptr %7, align 8
  %9 = getelementptr inbounds nuw i8, ptr %0, i64 364
  %10 = load i32, ptr %9, align 4
  %.not = icmp eq i32 %10, 0
  br i1 %.not, label %lazyTug32.exit, label %.lr.ph

.lr.ph:                                           ; preds = %3
  %11 = getelementptr inbounds nuw i8, ptr %0, i64 64
  %12 = getelementptr inbounds nuw i8, ptr %1, i64 32
  %13 = load i64, ptr %12, align 8
  %14 = add i64 %2, 1
  %15 = add i64 %14, %13
  %16 = getelementptr inbounds nuw i8, ptr %5, i64 8
  %17 = getelementptr inbounds nuw i8, ptr %1, i64 24
  %18 = load ptr, ptr %17, align 8
  %19 = getelementptr inbounds nuw i8, ptr %0, i64 388
  %20 = load i32, ptr %19, align 4
  %21 = zext i32 %20 to i64
  %22 = getelementptr inbounds nuw i8, ptr %18, i64 %21
  %23 = getelementptr inbounds nuw i8, ptr %0, i64 368
  br label %24

24:                                               ; preds = %.lr.ph, %repeatHasMatch.exit.thread25
  %indvars.iv = phi i64 [ 0, %.lr.ph ], [ %indvars.iv.next, %repeatHasMatch.exit.thread25 ]
  %.128 = phi i32 [ %6, %.lr.ph ], [ %.2, %repeatHasMatch.exit.thread25 ]
  %25 = load i32, ptr %23, align 16
  %26 = zext i32 %25 to i64
  %27 = getelementptr inbounds nuw i8, ptr %11, i64 %26
  %28 = getelementptr inbounds nuw i32, ptr %27, i64 %indvars.iv
  %29 = load i32, ptr %28, align 4
  %30 = zext i32 %29 to i64
  %31 = getelementptr inbounds nuw i8, ptr %11, i64 %30
  %32 = load i32, ptr %31, align 4
  %33 = shl nuw i32 1, %32
  %34 = and i32 %33, %.128
  %.not19.i = icmp eq i32 %34, 0
  br i1 %.not19.i, label %repeatHasMatch.exit.thread25, label %35

35:                                               ; preds = %24
  %36 = getelementptr inbounds nuw %union.RepeatControl, ptr %16, i64 %indvars.iv
  %37 = getelementptr inbounds nuw i8, ptr %31, i64 12
  %38 = load i32, ptr %37, align 4
  %39 = zext i32 %38 to i64
  %40 = getelementptr inbounds nuw i8, ptr %22, i64 %39
  %41 = getelementptr inbounds nuw i8, ptr %31, i64 24
  %42 = load i8, ptr %41, align 4
  switch i8 %42, label %repeatHasMatch.exit.thread [
    i8 0, label %43
    i8 1, label %45
    i8 2, label %52
    i8 3, label %64
    i8 4, label %66
    i8 5, label %68
    i8 6, label %70
    i8 7, label %repeatHasMatch.exit.thread25
  ]

43:                                               ; preds = %35
  %44 = tail call i32 @repeatHasMatchRing(ptr noundef nonnull %41, ptr noundef nonnull %36, ptr noundef %40, i64 noundef %15) #8
  br label %repeatHasMatch.exit

45:                                               ; preds = %35
  %46 = load i64, ptr %36, align 8
  %47 = getelementptr inbounds nuw i8, ptr %31, i64 28
  %48 = load i32, ptr %47, align 4
  %49 = zext i32 %48 to i64
  %50 = add i64 %46, %49
  %51 = icmp ult i64 %15, %50
  br i1 %51, label %repeatHasMatch.exit.thread, label %repeatHasMatch.exit.thread25

52:                                               ; preds = %35
  %53 = load i64, ptr %36, align 8
  %54 = getelementptr inbounds nuw i8, ptr %31, i64 28
  %55 = load i32, ptr %54, align 4
  %56 = zext i32 %55 to i64
  %57 = add i64 %53, %56
  %58 = icmp ult i64 %15, %57
  br i1 %58, label %repeatHasMatch.exit.thread, label %59

59:                                               ; preds = %52
  %60 = getelementptr inbounds nuw i8, ptr %31, i64 32
  %61 = load i32, ptr %60, align 4
  %62 = zext i32 %61 to i64
  %63 = add i64 %53, %62
  %.not.i16 = icmp ugt i64 %15, %63
  br i1 %.not.i16, label %repeatHasMatch.exit.thread, label %repeatHasMatch.exit.thread25

64:                                               ; preds = %35
  %65 = tail call i32 @repeatHasMatchRange(ptr noundef nonnull %41, ptr noundef nonnull %36, ptr noundef %40, i64 noundef %15) #8
  br label %repeatHasMatch.exit

66:                                               ; preds = %35
  %67 = tail call i32 @repeatHasMatchBitmap(ptr noundef nonnull %41, ptr noundef nonnull %36, i64 noundef %15) #8
  br label %repeatHasMatch.exit

68:                                               ; preds = %35
  %69 = tail call i32 @repeatHasMatchSparseOptimalP(ptr noundef nonnull %41, ptr noundef nonnull %36, ptr noundef %40, i64 noundef %15) #8
  br label %repeatHasMatch.exit

70:                                               ; preds = %35
  %71 = tail call i32 @repeatHasMatchTrailer(ptr noundef nonnull %41, ptr noundef nonnull %36, i64 noundef %15) #8
  br label %repeatHasMatch.exit

repeatHasMatch.exit:                              ; preds = %43, %64, %66, %68, %70
  %.0.i15 = phi i32 [ %71, %70 ], [ %69, %68 ], [ %67, %66 ], [ %65, %64 ], [ %44, %43 ]
  %.not20.i = icmp eq i32 %.0.i15, 1
  br i1 %.not20.i, label %repeatHasMatch.exit.thread25, label %repeatHasMatch.exit.thread

repeatHasMatch.exit.thread:                       ; preds = %59, %45, %35, %52, %repeatHasMatch.exit
  %72 = xor i32 %33, -1
  %73 = and i32 %.128, %72
  br label %repeatHasMatch.exit.thread25

repeatHasMatch.exit.thread25:                     ; preds = %59, %35, %45, %repeatHasMatch.exit.thread, %repeatHasMatch.exit, %24
  %.2 = phi i32 [ %.128, %24 ], [ %.128, %repeatHasMatch.exit ], [ %73, %repeatHasMatch.exit.thread ], [ %.128, %45 ], [ %.128, %35 ], [ %.128, %59 ]
  %indvars.iv.next = add nuw nsw i64 %indvars.iv, 1
  %74 = load i32, ptr %9, align 4
  %75 = zext i32 %74 to i64
  %76 = icmp samesign ult i64 %indvars.iv.next, %75
  br i1 %76, label %24, label %lazyTug32.exit

lazyTug32.exit:                                   ; preds = %repeatHasMatch.exit.thread25, %3
  %.0 = phi i32 [ %6, %3 ], [ %.2, %repeatHasMatch.exit.thread25 ]
  %77 = and i32 %.0, %8
  %.not14 = icmp ne i32 %77, 0
  %. = zext i1 %.not14 to i32
  ret i32 %.
}